; Function Attrs: mustprogress nounwind uwtable
define hidden void @_ZN5osgeo4proj10GTiffHGridD0Ev(ptr noundef nonnull align 8 dereferenceable(169) initializes((0, 8)) %0) unnamed_addr #4 align 2 personality ptr @__gxx_personality_v0 {
  store ptr getelementptr inbounds nuw inrange(-16, 56) (i8, ptr @_ZTVN5osgeo4proj10GTiffHGridE, i64 16), ptr %0, align 8, !tbaa !19
  %2 = getelementptr inbounds nuw i8, ptr %0, i64 144
  %3 = load ptr, ptr %2, align 8, !tbaa !238
  %.not.i.i = icmp eq ptr %3, null
  br i1 %.not.i.i, label %_ZNSt10unique_ptrIN5osgeo4proj9GTiffGridESt14default_deleteIS2_EED2Ev.exit.i, label %_ZNKSt14default_deleteIN5osgeo4proj9GTiffGridEEclEPS2_.exit.i.i

_ZNKSt14default_deleteIN5osgeo4proj9GTiffGridEEclEPS2_.exit.i.i: ; preds = %1
  %4 = load ptr, ptr %3, align 8, !tbaa !19
  %5 = getelementptr inbounds nuw i8, ptr %4, i64 8
  %6 = load ptr, ptr %5, align 8
  tail call void %6(ptr noundef nonnull align 8 dereferenceable(340) %3) #34
  br label %_ZNSt10unique_ptrIN5osgeo4proj9GTiffGridESt14default_deleteIS2_EED2Ev.exit.i

_ZNSt10unique_ptrIN5osgeo4proj9GTiffGridESt14default_deleteIS2_EED2Ev.exit.i: ; preds = %_ZNKSt14default_deleteIN5osgeo4proj9GTiffGridEEclEPS2_.exit.i.i, %1
  store ptr null, ptr %2, align 8, !tbaa !238
  store ptr getelementptr inbounds nuw inrange(-16, 56) (i8, ptr @_ZTVN5osgeo4proj19HorizontalShiftGridE, i64 16), ptr %0, align 8, !tbaa !19
  %7 = getelementptr inbounds nuw i8, ptr %0, i64 120
  %8 = load ptr, ptr %7, align 8, !tbaa !294
  %9 = getelementptr inbounds nuw i8, ptr %0, i64 128
  %10 = load ptr, ptr %9, align 8, !tbaa !297
  %.not4.i.i.i.i.i.i = icmp eq ptr %8, %10
  br i1 %.not4.i.i.i.i.i.i, label %_ZSt8_DestroyIPSt10unique_ptrIN5osgeo4proj19HorizontalShiftGridESt14default_deleteIS3_EES6_EvT_S8_RSaIT0_E.exit.i.i.i, label %.lr.ph.i.i.i.i.i.i

.lr.ph.i.i.i.i.i.i:                               ; preds = %_ZNSt10unique_ptrIN5osgeo4proj9GTiffGridESt14default_deleteIS2_EED2Ev.exit.i, %_ZSt8_DestroyISt10unique_ptrIN5osgeo4proj19HorizontalShiftGridESt14default_deleteIS3_EEEvPT_.exit.i.i.i.i.i.i
  %.05.i.i.i.i.i.i = phi ptr [ %15, %_ZSt8_DestroyISt10unique_ptrIN5osgeo4proj19HorizontalShiftGridESt14default_deleteIS3_EEEvPT_.exit.i.i.i.i.i.i ], [ %8, %_ZNSt10unique_ptrIN5osgeo4proj9GTiffGridESt14default_deleteIS2_EED2Ev.exit.i ]
  %11 = load ptr, ptr %.05.i.i.i.i.i.i, align 8, !tbaa !298
  %.not.i.i.i.i.i.i.i.i = icmp eq ptr %11, null
  br i1 %.not.i.i.i.i.i.i.i.i, label %_ZSt8_DestroyISt10unique_ptrIN5osgeo4proj19HorizontalShiftGridESt14default_deleteIS3_EEEvPT_.exit.i.i.i.i.i.i, label %_ZNKSt14default_deleteIN5osgeo4proj19HorizontalShiftGridEEclEPS2_.exit.i.i.i.i.i.i.i.i

_ZNKSt14default_deleteIN5osgeo4proj19HorizontalShiftGridEEclEPS2_.exit.i.i.i.i.i.i.i.i: ; preds = %.lr.ph.i.i.i.i.i.i
  %12 = load ptr, ptr %11, align 8, !tbaa !19
  %13 = getelementptr inbounds nuw i8, ptr %12, i64 8
  %14 = load ptr, ptr %13, align 8
  tail call void %14(ptr noundef nonnull align 8 dereferenceable(144) %11) #34
  br label %_ZSt8_DestroyISt10unique_ptrIN5osgeo4proj19HorizontalShiftGridESt14default_deleteIS3_EEEvPT_.exit.i.i.i.i.i.i

_ZSt8_DestroyISt10unique_ptrIN5osgeo4proj19HorizontalShiftGridESt14default_deleteIS3_EEEvPT_.exit.i.i.i.i.i.i: ; preds = %_ZNKSt14default_deleteIN5osgeo4proj19HorizontalShiftGridEEclEPS2_.exit.i.i.i.i.i.i.i.i, %.lr.ph.i.i.i.i.i.i
  store ptr null, ptr %.05.i.i.i.i.i.i, align 8, !tbaa !298
  %15 = getelementptr inbounds nuw i8, ptr %.05.i.i.i.i.i.i, i64 8
  %.not.i.i.i.i.i.i = icmp eq ptr %15, %10
  br i1 %.not.i.i.i.i.i.i, label %_ZSt8_DestroyIPSt10unique_ptrIN5osgeo4proj19HorizontalShiftGridESt14default_deleteIS3_EES6_EvT_S8_RSaIT0_E.exitthread-pre-split.i.i.i, label %.lr.ph.i.i.i.i.i.i, !llvm.loop !300

_ZSt8_DestroyIPSt10unique_ptrIN5osgeo4proj19HorizontalShiftGridESt14default_deleteIS3_EES6_EvT_S8_RSaIT0_E.exitthread-pre-split.i.i.i: ; preds = %_ZSt8_DestroyISt10unique_ptrIN5osgeo4proj19HorizontalShiftGridESt14default_deleteIS3_EEEvPT_.exit.i.i.i.i.i.i
  %.pr.i.i.i = load ptr, ptr %7, align 8, !tbaa !294
  br label %_ZSt8_DestroyIPSt10unique_ptrIN5osgeo4proj19HorizontalShiftGridESt14default_deleteIS3_EES6_EvT_S8_RSaIT0_E.exit.i.i.i

_ZSt8_DestroyIPSt10unique_ptrIN5osgeo4proj19HorizontalShiftGridESt14default_deleteIS3_EES6_EvT_S8_RSaIT0_E.exit.i.i.i: ; preds = %_ZSt8_DestroyIPSt10unique_ptrIN5osgeo4proj19HorizontalShiftGridESt14default_deleteIS3_EES6_EvT_S8_RSaIT0_E.exitthread-pre-split.i.i.i, %_ZNSt10unique_ptrIN5osgeo4proj9GTiffGridESt14default_deleteIS2_EED2Ev.exit.i
  %16 = phi ptr [ %.pr.i.i.i, %_ZSt8_DestroyIPSt10unique_ptrIN5osgeo4proj19HorizontalShiftGridESt14default_deleteIS3_EES6_EvT_S8_RSaIT0_E.exitthread-pre-split.i.i.i ], [ %8, %_ZNSt10unique_ptrIN5osgeo4proj9GTiffGridESt14default_deleteIS2_EED2Ev.exit.i ]
  %.not.i.i.i.i.i = icmp eq ptr %16, null
  br i1 %.not.i.i.i.i.i, label %_ZNSt6vectorISt10unique_ptrIN5osgeo4proj19HorizontalShiftGridESt14default_deleteIS3_EESaIS6_EED2Ev.exit.i.i, label %17

17:                                               ; preds = %_ZSt8_DestroyIPSt10unique_ptrIN5osgeo4proj19HorizontalShiftGridESt14default_deleteIS3_EES6_EvT_S8_RSaIT0_E.exit.i.i.i
  %18 = getelementptr inbounds nuw i8, ptr %0, i64 136
  %19 = load ptr, ptr %18, align 8, !tbaa !301
  %20 = ptrtoint ptr %19 to i64
  %21 = ptrtoint ptr %16 to i64
  %22 = sub i64 %20, %21
  tail call void @_ZdlPvm(ptr noundef nonnull %16, i64 noundef %22) #35
  br label %_ZNSt6vectorISt10unique_ptrIN5osgeo4proj19HorizontalShiftGridESt14default_deleteIS3_EESaIS6_EED2Ev.exit.i.i

_ZNSt6vectorISt10unique_ptrIN5osgeo4proj19HorizontalShiftGridESt14default_deleteIS3_EESaIS6_EED2Ev.exit.i.i: ; preds = %17, %_ZSt8_DestroyIPSt10unique_ptrIN5osgeo4proj19HorizontalShiftGridESt14default_deleteIS3_EES6_EvT_S8_RSaIT0_E.exit.i.i.i
  store ptr getelementptr inbounds nuw inrange(-16, 40) (i8, ptr @_ZTVN5osgeo4proj4GridE, i64 16), ptr %0, align 8, !tbaa !19
  %23 = getelementptr inbounds nuw i8, ptr %0, i64 8
  %24 = load ptr, ptr %23, align 8, !tbaa !25
  %25 = getelementptr inbounds nuw i8, ptr %0, i64 24
  %26 = icmp eq ptr %24, %25
  br i1 %26, label %_ZNKSt7__cxx1112basic_stringIcSt11char_traitsIcESaIcEE11_M_is_localEv.exit.thread.i.i.i.i.i, label %_ZNKSt7__cxx1112basic_stringIcSt11char_traitsIcESaIcEE11_M_is_localEv.exit.i.i.i.i.i

_ZNKSt7__cxx1112basic_stringIcSt11char_traitsIcESaIcEE11_M_is_localEv.exit.thread.i.i.i.i.i: ; preds = %_ZNSt6vectorISt10unique_ptrIN5osgeo4proj19HorizontalShiftGridESt14default_deleteIS3_EESaIS6_EED2Ev.exit.i.i
  %27 = getelementptr inbounds nuw i8, ptr %0, i64 16
  %28 = load i64, ptr %27, align 8, !tbaa !28
  %29 = icmp ult i64 %28, 16
  tail call void @llvm.assume(i1 %29)
  br label %_ZN5osgeo4proj10GTiffHGridD2Ev.exit

_ZNKSt7__cxx1112basic_stringIcSt11char_traitsIcESaIcEE11_M_is_localEv.exit.i.i.i.i.i: ; preds = %_ZNSt6vectorISt10unique_ptrIN5osgeo4proj19HorizontalShiftGridESt14default_deleteIS3_EESaIS6_EED2Ev.exit.i.i
  %30 = load i64, ptr %25, align 8, !tbaa !30
  %31 = add i64 %30, 1
  tail call void @_ZdlPvm(ptr noundef %24, i64 noundef %31) #35
  br label %_ZN5osgeo4proj10GTiffHGridD2Ev.exit

_ZN5osgeo4proj10GTiffHGridD2Ev.exit:              ; preds = %_ZNKSt7__cxx1112basic_stringIcSt11char_traitsIcESaIcEE11_M_is_localEv.exit.thread.i.i.i.i.i, %_ZNKSt7__cxx1112basic_stringIcSt11char_traitsIcESaIcEE11_M_is_localEv.exit.i.i.i.i.i
  tail call void @_ZdlPvm(ptr noundef nonnull %0, i64 noundef 176) #35
  ret void
}